; Function Attrs: nounwind sspstrong uwtable
define internal noundef i64 @cState_max_nesting_set(i64 noundef %0, i64 noundef %1) #0 {
  %3 = tail call ptr @rb_check_typeddata(i64 noundef %0, ptr noundef nonnull @JSON_Generator_State_type) #22
  %4 = and i64 %1, -5
  %.not.i = icmp eq i64 %4, 0
  %5 = ashr i64 %1, 1
  %spec.select.i = select i1 %.not.i, i64 0, i64 %5
  %6 = getelementptr inbounds nuw i8, ptr %3, i64 48
  store i64 %spec.select.i, ptr %6, align 8, !tbaa !18
  ret i64 4
}